; Function Attrs: mustprogress uwtable
define hidden void @_ZN4cvc58internal6theory2bv5utils9mkExtractENS0_12NodeTemplateILb0EEEjj(ptr dead_on_unwind noalias writable sret(%"class.cvc5::internal::NodeTemplate.0") align 8 %0, ptr noundef readonly captures(none) %1, i32 noundef %2, i32 noundef %3) local_unnamed_addr #3 personality ptr @__gxx_personality_v0 {
  %5 = alloca %"class.cvc5::internal::NodeBuilder", align 8
  %6 = alloca %"class.cvc5::internal::NodeTemplate", align 8
  %7 = alloca %"class.cvc5::internal::NodeTemplate", align 8
  %8 = alloca %"class.cvc5::internal::NodeTemplate.0", align 8
  %9 = alloca %"struct.cvc5::internal::BitVectorExtract", align 4
  %10 = tail call noundef ptr @_ZN4cvc58internal11NodeManager9currentNMEv()
  call void @llvm.lifetime.start.p0(i64 8, ptr nonnull %8) #22
  call void @llvm.lifetime.start.p0(i64 8, ptr nonnull %9) #22
  store i32 %2, ptr %9, align 4, !tbaa !23
  %11 = getelementptr inbounds nuw i8, ptr %9, i64 4
  store i32 %3, ptr %11, align 4, !tbaa !30
  call void @_ZN4cvc58internal11NodeManager7mkConstINS0_16BitVectorExtractEEENS0_12NodeTemplateILb1EEERKT_(ptr dead_on_unwind nonnull writable sret(%"class.cvc5::internal::NodeTemplate.0") align 8 %8, ptr noundef nonnull align 8 dereferenceable(3560) %10, ptr noundef nonnull align 4 dereferenceable(8) %9)
  call void @llvm.lifetime.end.p0(i64 8, ptr nonnull %9) #22
  %12 = load ptr, ptr %8, align 8, !tbaa !21
  %13 = load ptr, ptr %1, align 8, !tbaa !10
  call void @llvm.lifetime.start.p0(i64 8, ptr nonnull %6)
  call void @llvm.lifetime.start.p0(i64 8, ptr nonnull %7)
  call void @llvm.lifetime.start.p0(i64 128, ptr nonnull %5) #22, !noalias !140
  %14 = getelementptr inbounds nuw i8, ptr %12, i64 16
  %15 = load ptr, ptr %14, align 8, !tbaa !26, !noalias !140
  %16 = invoke noundef i32 @_ZN4cvc58internal4kind14operatorToKindEPNS0_4expr9NodeValueE(ptr noundef nonnull %12)
          to label %.noexc unwind label %46

.noexc:                                           ; preds = %4
  invoke void @_ZN4cvc58internal11NodeBuilderC1EPNS0_11NodeManagerENS0_4kind6Kind_tE(ptr noundef nonnull align 8 dereferenceable(124) %5, ptr noundef %15, i32 noundef %16)
          to label %.noexc4 unwind label %46

.noexc4:                                          ; preds = %.noexc
  %17 = getelementptr inbounds nuw i8, ptr %12, i64 8
  %18 = load i64, ptr %17, align 8, !noalias !140
  %19 = and i64 %18, 1023
  %.not.i = icmp eq i64 %19, 4
  br i1 %.not.i, label %26, label %20

20:                                               ; preds = %.noexc4
  store ptr %12, ptr %6, align 8, !tbaa !10, !noalias !140
  %21 = invoke noundef nonnull align 8 dereferenceable(124) ptr @_ZN4cvc58internal11NodeBuilderlsENS0_12NodeTemplateILb0EEE(ptr noundef nonnull align 8 dereferenceable(124) %5, ptr noundef nonnull %6)
          to label %26 unwind label %24, !noalias !140

22:                                               ; preds = %28
  %23 = landingpad { ptr, i32 }
          cleanup
  br label %31

24:                                               ; preds = %20
  %25 = landingpad { ptr, i32 }
          cleanup
  br label %31

26:                                               ; preds = %20, %.noexc4
  store ptr %13, ptr %7, align 8, !tbaa !10, !noalias !140
  %27 = invoke noundef nonnull align 8 dereferenceable(124) ptr @_ZN4cvc58internal11NodeBuilderlsENS0_12NodeTemplateILb0EEE(ptr noundef nonnull align 8 dereferenceable(124) %5, ptr noundef nonnull %7)
          to label %28 unwind label %29, !noalias !140

28:                                               ; preds = %26
  invoke void @_ZN4cvc58internal11NodeBuilder13constructNodeEv(ptr dead_on_unwind writable sret(%"class.cvc5::internal::NodeTemplate.0") align 8 %0, ptr noundef nonnull align 8 dereferenceable(124) %5)
          to label %32 unwind label %22

29:                                               ; preds = %26
  %30 = landingpad { ptr, i32 }
          cleanup
  br label %31

31:                                               ; preds = %29, %24, %22
  %.pn.i = phi { ptr, i32 } [ %23, %22 ], [ %30, %29 ], [ %25, %24 ]
  call void @_ZN4cvc58internal11NodeBuilderD1Ev(ptr noundef nonnull align 8 dereferenceable(124) %5) #22
  call void @llvm.lifetime.end.p0(i64 128, ptr nonnull %5) #22, !noalias !140
  br label %.body

32:                                               ; preds = %28
  call void @_ZN4cvc58internal11NodeBuilderD1Ev(ptr noundef nonnull align 8 dereferenceable(124) %5) #22
  call void @llvm.lifetime.end.p0(i64 128, ptr nonnull %5) #22, !noalias !140
  call void @llvm.lifetime.end.p0(i64 8, ptr nonnull %6)
  call void @llvm.lifetime.end.p0(i64 8, ptr nonnull %7)
  %33 = load ptr, ptr %8, align 8, !tbaa !21
  %34 = load i64, ptr %33, align 8
  %35 = and i64 %34, 1152920405095219200
  %.not.i.i = icmp eq i64 %35, 1152920405095219200
  br i1 %.not.i.i, label %_ZN4cvc58internal12NodeTemplateILb1EED2Ev.exit, label %36, !prof !9

36:                                               ; preds = %32
  %37 = add i64 %34, 1152920405095219200
  %38 = and i64 %37, 1152920405095219200
  %39 = and i64 %34, -1152920405095219201
  %40 = or disjoint i64 %38, %39
  store i64 %40, ptr %33, align 8
  %41 = icmp eq i64 %38, 0
  br i1 %41, label %42, label %_ZN4cvc58internal12NodeTemplateILb1EED2Ev.exit, !prof !9

42:                                               ; preds = %36
  invoke void @_ZN4cvc58internal4expr9NodeValue15markForDeletionEv(ptr noundef nonnull align 8 dereferenceable(24) %33)
          to label %_ZN4cvc58internal12NodeTemplateILb1EED2Ev.exit unwind label %43

43:                                               ; preds = %42
  %44 = landingpad { ptr, i32 }
          catch ptr null
  %45 = extractvalue { ptr, i32 } %44, 0
  call void @__clang_call_terminate(ptr %45) #23
  unreachable

_ZN4cvc58internal12NodeTemplateILb1EED2Ev.exit:   ; preds = %32, %36, %42
  call void @llvm.lifetime.end.p0(i64 8, ptr nonnull %8) #22
  ret void

46:                                               ; preds = %.noexc, %4
  %47 = landingpad { ptr, i32 }
          cleanup
  br label %.body

.body:                                            ; preds = %31, %46
  %eh.lpad-body = phi { ptr, i32 } [ %47, %46 ], [ %.pn.i, %31 ]
  call void @_ZN4cvc58internal12NodeTemplateILb1EED2Ev(ptr noundef nonnull align 8 dereferenceable(8) %8) #22
  call void @llvm.lifetime.end.p0(i64 8, ptr nonnull %8) #22
  resume { ptr, i32 } %eh.lpad-body
}